target datalayout = "e-m:e-p270:32:32-p271:32:32-p272:64:64-i64:64-i128:128-f80:128-n8:16:32:64-S128"
target triple = "x86_64-pc-linux-gnu"

%struct.expert_field = type { i32, i32 }
%struct._iso15765_info = type { i32, i32, i32, i16, i16, i8, i8 }
%struct.obdii_packet_info = type { ptr, i32, i8, i8, i8, i32, i8, i8, i8, i8, i8 }
%struct._packet_info = type { ptr, ptr, i32, i32, %struct.nstime_t, %struct.nstime_t, %struct.nstime_t, i8, ptr, ptr, ptr, ptr, %struct._address, %struct._address, %struct._address, %struct._address, %struct._address, %struct._address, i32, ptr, i8, [3 x i8], %struct.anon, i32, i32, i32, i32, ptr, i8, ptr, ptr, i16, i16, i32, i32, i16, i32, i32, ptr, ptr, ptr, i8, i8, i16, i16, i16, i32, i16, i16, ptr, ptr, ptr, ptr, ptr, i32, i32 }
%struct.nstime_t = type { i64, i32 }
%struct._address = type { i32, i32, ptr, ptr }
%struct.anon = type { i8, [3 x i8] }

@hf_obdii_mode = internal global i32 0, align 4
@ett_obdii = internal global i32 0, align 4
@ei_obdii_padding = internal global %struct.expert_field zeroinitializer, align 4
@.str.146 = private unnamed_addr constant [7 x i8] c"OBD-II\00", align 1
@proto_obdii = internal global i32 0, align 4
@.str.304 = private unnamed_addr constant [29 x i8] c"%s:%u: failed assertion \22%s\22\00", align 1
@.str.305 = private unnamed_addr constant [32 x i8] c"epan/dissectors/packet-obd-ii.c\00", align 1
@.str.306 = private unnamed_addr constant [5 x i8] c"data\00", align 1
@.str.307 = private unnamed_addr constant [55 x i8] c"%s:%u: failed assertion \22DISSECTOR_ASSERT_NOT_REACHED\22\00", align 1

; Function Attrs: alwaysinline nounwind
define internal ptr @memset.inline(ptr %0, i32 %1, i64 %2) #5 {
  %4 = alloca ptr, align 8
  %5 = alloca i32, align 4
  %6 = alloca i64, align 8
  store ptr %0, ptr %4, align 8
  store i32 %1, ptr %5, align 4
  store i64 %2, ptr %6, align 8
  %7 = load ptr, ptr %4, align 8
  %8 = load i32, ptr %5, align 4
  %9 = load i64, ptr %6, align 8
  %10 = load ptr, ptr %4, align 8
  %11 = call i64 @llvm.objectsize.i64.p0(ptr %10, i1 false, i1 true, i1 true)
  %12 = call ptr @__memset_chk(ptr noundef %7, i32 noundef %8, i64 noundef %9, i64 noundef %11) #8
  ret ptr %12
}

; Function Attrs: null_pointer_is_valid sspstrong uwtable
define internal i32 @dissect_obdii_iso15765(ptr noundef %0, ptr noundef %1, ptr noundef %2, ptr noundef %3) #0 {
  %5 = alloca i32, align 4
  %6 = alloca ptr, align 8
  %7 = alloca ptr, align 8
  %8 = alloca ptr, align 8
  %9 = alloca ptr, align 8
  %10 = alloca %struct._iso15765_info, align 4
  %11 = alloca i32, align 4
  %12 = alloca %struct.obdii_packet_info, align 8
  %13 = alloca ptr, align 8
  %14 = alloca ptr, align 8
  %15 = alloca i8, align 1
  %16 = alloca i8, align 1
  %17 = alloca i8, align 1
  %18 = alloca i8, align 1
  %19 = alloca i32, align 4
  store ptr %0, ptr %6, align 8
  store ptr %1, ptr %7, align 8
  store ptr %2, ptr %8, align 8
  store ptr %3, ptr %9, align 8
  call void @llvm.lifetime.start.p0(i64 20, ptr %10) #8
  call void @llvm.lifetime.start.p0(i64 4, ptr %11) #8
  call void @llvm.lifetime.start.p0(i64 32, ptr %12) #8
  call void @llvm.lifetime.start.p0(i64 8, ptr %13) #8
  call void @llvm.lifetime.start.p0(i64 8, ptr %14) #8
  call void @llvm.lifetime.start.p0(i64 1, ptr %15) #8
  call void @llvm.lifetime.start.p0(i64 1, ptr %16) #8
  call void @llvm.lifetime.start.p0(i64 1, ptr %17) #8
  call void @llvm.lifetime.start.p0(i64 1, ptr %18) #8
  %20 = load ptr, ptr %9, align 8
  %21 = icmp ne ptr %20, null
  br i1 %21, label %22, label %23

22:                                               ; preds = %4
  br label %25

23:                                               ; preds = %4
  call void (ptr, ...) @proto_report_dissector_bug(ptr noundef @.str.304, ptr noundef @.str.305, i32 noundef 1382, ptr noundef @.str.306) #9
  unreachable

24:                                               ; No predecessors!
  br label %25

25:                                               ; preds = %24, %22
  %26 = load ptr, ptr %9, align 8
  call void @llvm.memcpy.p0.p0.i64(ptr align 4 %10, ptr align 4 %26, i64 20, i1 false)
  %27 = getelementptr inbounds nuw %struct._iso15765_info, ptr %10, i32 0, i32 0
  %28 = load i32, ptr %27, align 4
  %29 = icmp ne i32 %28, 1
  br i1 %29, label %30, label %35

30:                                               ; preds = %25
  %31 = getelementptr inbounds nuw %struct._iso15765_info, ptr %10, i32 0, i32 0
  %32 = load i32, ptr %31, align 4
  %33 = icmp ne i32 %32, 2
  br i1 %33, label %34, label %35

34:                                               ; preds = %30
  store i32 0, ptr %5, align 4
  store i32 1, ptr %19, align 4
  br label %185

35:                                               ; preds = %30, %25
  %36 = getelementptr inbounds nuw %struct._iso15765_info, ptr %10, i32 0, i32 1
  %37 = load i32, ptr %36, align 4
  %38 = and i32 %37, 536870911
  store i32 %38, ptr %11, align 4
  %39 = getelementptr inbounds nuw %struct._iso15765_info, ptr %10, i32 0, i32 1
  %40 = load i32, ptr %39, align 4
  %41 = and i32 %40, -2147483648
  %42 = icmp ne i32 %41, 0
  br i1 %42, label %43, label %61

43:                                               ; preds = %35
  %44 = load i32, ptr %11, align 4
  %45 = icmp eq i32 %44, 417018865
  %46 = zext i1 %45 to i8
  store i8 %46, ptr %17, align 1
  %47 = load i32, ptr %11, align 4
  %48 = and i32 %47, -65281
  %49 = xor i32 %48, 416940273
  %50 = icmp eq i32 %49, 0
  br i1 %50, label %56, label %51

51:                                               ; preds = %43
  %52 = load i32, ptr %11, align 4
  %53 = and i32 %52, -256
  %54 = xor i32 %53, 417001728
  %55 = icmp eq i32 %54, 0
  br label %56

56:                                               ; preds = %51, %43
  %57 = phi i1 [ true, %43 ], [ %55, %51 ]
  %58 = select i1 %57, i32 1, i32 0
  %59 = icmp ne i32 %58, 0
  %60 = zext i1 %59 to i8
  store i8 %60, ptr %18, align 1
  br label %77

61:                                               ; preds = %35
  %62 = load i32, ptr %11, align 4
  %63 = icmp eq i32 %62, 2015
  %64 = zext i1 %63 to i8
  store i8 %64, ptr %17, align 1
  %65 = load i32, ptr %11, align 4
  %66 = and i32 %65, -8
  %67 = xor i32 %66, 2016
  %68 = icmp eq i32 %67, 0
  br i1 %68, label %74, label %69

69:                                               ; preds = %61
  %70 = load i32, ptr %11, align 4
  %71 = and i32 %70, -8
  %72 = xor i32 %71, 2024
  %73 = icmp eq i32 %72, 0
  br label %74

74:                                               ; preds = %69, %61
  %75 = phi i1 [ true, %61 ], [ %73, %69 ]
  %76 = zext i1 %75 to i8
  store i8 %76, ptr %18, align 1
  br label %77

77:                                               ; preds = %74, %56
  %78 = getelementptr inbounds nuw %struct._iso15765_info, ptr %10, i32 0, i32 1
  %79 = load i32, ptr %78, align 4
  %80 = and i32 %79, 1610612736
  %81 = icmp ne i32 %80, 0
  br i1 %81, label %82, label %83

82:                                               ; preds = %77
  store i32 0, ptr %5, align 4
  store i32 1, ptr %19, align 4
  br label %185

83:                                               ; preds = %77
  %84 = load i8, ptr %17, align 1, !range !6, !noundef !7
  %85 = trunc i8 %84 to i1
  br i1 %85, label %90, label %86

86:                                               ; preds = %83
  %87 = load i8, ptr %18, align 1, !range !6, !noundef !7
  %88 = trunc i8 %87 to i1
  br i1 %88, label %90, label %89

89:                                               ; preds = %86
  store i32 0, ptr %5, align 4
  store i32 1, ptr %19, align 4
  br label %185

90:                                               ; preds = %86, %83
  %91 = load ptr, ptr %6, align 8
  %92 = call i32 @tvb_reported_length(ptr noundef %91)
  %93 = trunc i32 %92 to i8
  store i8 %93, ptr %15, align 1
  %94 = load ptr, ptr %6, align 8
  %95 = call zeroext i8 @tvb_get_uint8(ptr noundef %94, i32 noundef 0)
  store i8 %95, ptr %16, align 1
  %96 = load i8, ptr %17, align 1, !range !6, !noundef !7
  %97 = trunc i8 %96 to i1
  br i1 %97, label %98, label %120

98:                                               ; preds = %90
  %99 = getelementptr inbounds nuw %struct._iso15765_info, ptr %10, i32 0, i32 2
  %100 = load i32, ptr %99, align 4
  %101 = icmp ne i32 %100, 8
  br i1 %101, label %102, label %105

102:                                              ; preds = %98
  %103 = load ptr, ptr %7, align 8
  %104 = call ptr @expert_add_info(ptr noundef %103, ptr noundef null, ptr noundef @ei_obdii_padding)
  br label %105

105:                                              ; preds = %102, %98
  %106 = load i8, ptr %15, align 1
  %107 = zext i8 %106 to i32
  %108 = icmp eq i32 %107, 0
  br i1 %108, label %113, label %109

109:                                              ; preds = %105
  %110 = load i8, ptr %15, align 1
  %111 = zext i8 %110 to i32
  %112 = icmp sgt i32 %111, 3
  br i1 %112, label %113, label %114

113:                                              ; preds = %109, %105
  store i32 0, ptr %5, align 4
  store i32 1, ptr %19, align 4
  br label %185

114:                                              ; preds = %109
  %115 = load i8, ptr %16, align 1
  %116 = zext i8 %115 to i32
  %117 = icmp sgt i32 %116, 10
  br i1 %117, label %118, label %119

118:                                              ; preds = %114
  store i32 0, ptr %5, align 4
  store i32 1, ptr %19, align 4
  br label %185

119:                                              ; preds = %114
  br label %120

120:                                              ; preds = %119, %90
  %121 = load i8, ptr %18, align 1, !range !6, !noundef !7
  %122 = trunc i8 %121 to i1
  br i1 %122, label %123, label %142

123:                                              ; preds = %120
  %124 = load i8, ptr %16, align 1
  %125 = zext i8 %124 to i32
  %126 = icmp ne i32 %125, 68
  br i1 %126, label %127, label %132

127:                                              ; preds = %123
  %128 = load i8, ptr %15, align 1
  %129 = zext i8 %128 to i32
  %130 = icmp slt i32 %129, 2
  br i1 %130, label %131, label %132

131:                                              ; preds = %127
  store i32 0, ptr %5, align 4
  store i32 1, ptr %19, align 4
  br label %185

132:                                              ; preds = %127, %123
  %133 = load i8, ptr %16, align 1
  %134 = zext i8 %133 to i32
  %135 = icmp slt i32 %134, 64
  br i1 %135, label %136, label %137

136:                                              ; preds = %132
  store i32 0, ptr %5, align 4
  store i32 1, ptr %19, align 4
  br label %185

137:                                              ; preds = %132
  %138 = load i8, ptr %16, align 1
  %139 = zext i8 %138 to i32
  %140 = sub i32 %139, 64
  %141 = trunc i32 %140 to i8
  store i8 %141, ptr %16, align 1
  br label %142

142:                                              ; preds = %137, %120
  %143 = load ptr, ptr %7, align 8
  %144 = getelementptr inbounds nuw %struct._packet_info, ptr %143, i32 0, i32 1
  %145 = load ptr, ptr %144, align 8
  call void @col_set_str(ptr noundef %145, i32 noundef 35, ptr noundef @.str.146)
  %146 = load ptr, ptr %7, align 8
  %147 = getelementptr inbounds nuw %struct._packet_info, ptr %146, i32 0, i32 1
  %148 = load ptr, ptr %147, align 8
  call void @col_clear(ptr noundef %148, i32 noundef 25)
  %149 = load ptr, ptr %8, align 8
  %150 = load i32, ptr @proto_obdii, align 4
  %151 = load ptr, ptr %6, align 8
  %152 = call ptr @proto_tree_add_item(ptr noundef %149, i32 noundef %150, ptr noundef %151, i32 noundef 0, i32 noundef -1, i32 noundef 0)
  store ptr %152, ptr %14, align 8
  %153 = load ptr, ptr %14, align 8
  %154 = load i32, ptr @ett_obdii, align 4
  %155 = call ptr @proto_item_add_subtree(ptr noundef %153, i32 noundef %154)
  store ptr %155, ptr %13, align 8
  %156 = load ptr, ptr %13, align 8
  %157 = load i32, ptr @hf_obdii_mode, align 4
  %158 = load ptr, ptr %6, align 8
  %159 = load i8, ptr %16, align 1
  %160 = zext i8 %159 to i32
  %161 = call ptr @proto_tree_add_uint(ptr noundef %156, i32 noundef %157, ptr noundef %158, i32 noundef 0, i32 noundef 1, i32 noundef %160)
  %162 = call ptr @memset.inline(ptr noundef %12, i32 noundef 0, i64 noundef 32) #8
  %163 = load ptr, ptr %7, align 8
  %164 = getelementptr inbounds nuw %struct.obdii_packet_info, ptr %12, i32 0, i32 0
  store ptr %163, ptr %164, align 8
  %165 = load i32, ptr %11, align 4
  %166 = getelementptr inbounds nuw %struct.obdii_packet_info, ptr %12, i32 0, i32 1
  store i32 %165, ptr %166, align 8
  %167 = load i8, ptr %15, align 1
  %168 = getelementptr inbounds nuw %struct.obdii_packet_info, ptr %12, i32 0, i32 2
  store i8 %167, ptr %168, align 4
  %169 = load i8, ptr %16, align 1
  %170 = getelementptr inbounds nuw %struct.obdii_packet_info, ptr %12, i32 0, i32 3
  store i8 %169, ptr %170, align 1
  %171 = load i8, ptr %17, align 1, !range !6, !noundef !7
  %172 = trunc i8 %171 to i1
  br i1 %172, label %173, label %177

173:                                              ; preds = %142
  %174 = load ptr, ptr %6, align 8
  %175 = load ptr, ptr %13, align 8
  %176 = call i32 @dissect_obdii_query(ptr noundef %174, ptr noundef %12, ptr noundef %175)
  store i32 %176, ptr %5, align 4
  store i32 1, ptr %19, align 4
  br label %185

177:                                              ; preds = %142
  %178 = load i8, ptr %18, align 1, !range !6, !noundef !7
  %179 = trunc i8 %178 to i1
  br i1 %179, label %180, label %184

180:                                              ; preds = %177
  %181 = load ptr, ptr %6, align 8
  %182 = load ptr, ptr %13, align 8
  %183 = call i32 @dissect_obdii_response(ptr noundef %181, ptr noundef %12, ptr noundef %182)
  store i32 %183, ptr %5, align 4
  store i32 1, ptr %19, align 4
  br label %185

184:                                              ; preds = %177
  call void (ptr, ...) @proto_report_dissector_bug(ptr noundef @.str.307, ptr noundef @.str.305, i32 noundef 1457) #9
  unreachable

185:                                              ; preds = %180, %173, %136, %131, %118, %113, %89, %82, %34
  call void @llvm.lifetime.end.p0(i64 1, ptr %18) #8
  call void @llvm.lifetime.end.p0(i64 1, ptr %17) #8
  call void @llvm.lifetime.end.p0(i64 1, ptr %16) #8
  call void @llvm.lifetime.end.p0(i64 1, ptr %15) #8
  call void @llvm.lifetime.end.p0(i64 8, ptr %14) #8
  call void @llvm.lifetime.end.p0(i64 8, ptr %13) #8
  call void @llvm.lifetime.end.p0(i64 32, ptr %12) #8
  call void @llvm.lifetime.end.p0(i64 4, ptr %11) #8
  call void @llvm.lifetime.end.p0(i64 20, ptr %10) #8
  %186 = load i32, ptr %5, align 4
  ret i32 %186
}